target datalayout = "e-m:e-p270:32:32-p271:32:32-p272:64:64-i64:64-i128:128-f80:128-n8:16:32:64-S128"
target triple = "x86_64-pc-linux-gnu"

%struct.LWLockHandle = type { ptr, i32 }

@num_held_lwlocks = internal global i32 0, align 4
@held_lwlocks = internal global [200 x %struct.LWLockHandle] zeroinitializer, align 16

; Function Attrs: nounwind uwtable
define dso_local zeroext i1 @LWLockHeldByMe(ptr noundef %0) #0 {
  %2 = alloca i1, align 1
  %3 = alloca ptr, align 8
  %4 = alloca i32, align 4
  %5 = alloca i32, align 4
  store ptr %0, ptr %3, align 8
  call void @llvm.lifetime.start.p0(i64 4, ptr %4) #9
  store i32 0, ptr %4, align 4
  br label %6

6:                                                ; preds = %20, %1
  %7 = load i32, ptr %4, align 4
  %8 = load i32, ptr @num_held_lwlocks, align 4
  %9 = icmp slt i32 %7, %8
  br i1 %9, label %10, label %23

10:                                               ; preds = %6
  %11 = load i32, ptr %4, align 4
  %12 = sext i32 %11 to i64
  %13 = getelementptr inbounds [200 x %struct.LWLockHandle], ptr @held_lwlocks, i64 0, i64 %12
  %14 = getelementptr inbounds nuw %struct.LWLockHandle, ptr %13, i32 0, i32 0
  %15 = load ptr, ptr %14, align 16
  %16 = load ptr, ptr %3, align 8
  %17 = icmp eq ptr %15, %16
  br i1 %17, label %18, label %19

18:                                               ; preds = %10
  store i1 true, ptr %2, align 1
  store i32 1, ptr %5, align 4
  br label %24

19:                                               ; preds = %10
  br label %20

20:                                               ; preds = %19
  %21 = load i32, ptr %4, align 4
  %22 = add i32 %21, 1
  store i32 %22, ptr %4, align 4
  br label %6, !llvm.loop !33

23:                                               ; preds = %6
  store i1 false, ptr %2, align 1
  store i32 1, ptr %5, align 4
  br label %24

24:                                               ; preds = %23, %18
  call void @llvm.lifetime.end.p0(i64 4, ptr %4) #9
  %25 = load i1, ptr %2, align 1
  ret i1 %25
}