; Function Attrs: nofree norecurse nosync nounwind memory(read, argmem: none, inaccessiblemem: none) uwtable
define dso_local noundef zeroext i1 @LWLockHeldByMe(ptr noundef readnone captures(address) %0) local_unnamed_addr #10 {
  %2 = load i32, ptr @num_held_lwlocks, align 4
  %3 = icmp sgt i32 %2, 0
  br i1 %3, label %.lr.ph.preheader, label %._crit_edge

.lr.ph.preheader:                                 ; preds = %1
  %wide.trip.count = zext nneg i32 %2 to i64
  br label %.lr.ph

.lr.ph:                                           ; preds = %.lr.ph, %.lr.ph.preheader
  %indvars.iv = phi i64 [ 0, %.lr.ph.preheader ], [ %indvars.iv.next, %.lr.ph ]
  %4 = getelementptr inbounds nuw [200 x %struct.LWLockHandle], ptr @held_lwlocks, i64 0, i64 %indvars.iv
  %5 = load ptr, ptr %4, align 16
  %6 = icmp eq ptr %5, %0
  %indvars.iv.next = add nuw nsw i64 %indvars.iv, 1
  %exitcond.not = icmp eq i64 %indvars.iv.next, %wide.trip.count
  %or.cond = select i1 %6, i1 true, i1 %exitcond.not
  br i1 %or.cond, label %._crit_edge, label %.lr.ph, !llvm.loop !34

._crit_edge:                                      ; preds = %.lr.ph, %1
  %.lcssa = phi i1 [ false, %1 ], [ %6, %.lr.ph ]
  ret i1 %.lcssa
}